; Function Attrs: mustprogress nounwind uwtable
define void @_ZNK7mitsuba6Object7dec_refEb(ptr noundef nonnull align 8 dereferenceable(12) %0, i1 noundef zeroext %1) local_unnamed_addr #0 align 2 {
  %3 = getelementptr inbounds i8, ptr %0, i64 8
  %4 = atomicrmw sub ptr %3, i32 1 seq_cst, align 4
  switch i32 %4, label %13 [
    i32 0, label %5
    i32 1, label %8
  ]

5:                                                ; preds = %2
  %6 = load ptr, ptr @stderr, align 8
  %7 = tail call i64 @fwrite(ptr nonnull @.str, i64 44, i64 1, ptr %6) #15
  tail call void @abort() #16
  unreachable

8:                                                ; preds = %2
  br i1 %1, label %9, label %13

9:                                                ; preds = %8
  %10 = load ptr, ptr %0, align 8
  %11 = getelementptr inbounds i8, ptr %10, i64 64
  %12 = load ptr, ptr %11, align 8
  tail call void %12(ptr noundef nonnull align 8 dereferenceable(12) %0) #17
  br label %13

13:                                               ; preds = %2, %8, %9
  ret void
}